target datalayout = "e-m:e-p270:32:32-p271:32:32-p272:64:64-i64:64-i128:128-f80:128-n8:16:32:64-S128"
target triple = "x86_64-pc-linux-gnu"

%struct.WC_RNG = type { %struct.OS_Seed, ptr, ptr, i8 }
%struct.OS_Seed = type { i32 }

; Function Attrs: inlinehint nounwind uwtable
define internal void @ForceZero(ptr noundef %0, i32 noundef %1) #2 {
  %3 = alloca ptr, align 8
  %4 = alloca i32, align 4
  %5 = alloca ptr, align 8
  %6 = alloca ptr, align 8
  %7 = alloca i32, align 4
  store ptr %0, ptr %3, align 8, !tbaa !24
  store i32 %1, ptr %4, align 4, !tbaa !10
  call void @llvm.lifetime.start.p0(i64 8, ptr %5) #6
  %8 = load ptr, ptr %3, align 8, !tbaa !24
  store ptr %8, ptr %5, align 8, !tbaa !8
  call void @llvm.lifetime.start.p0(i64 8, ptr %6) #6
  call void @llvm.lifetime.start.p0(i64 4, ptr %7) #6
  %9 = load ptr, ptr %5, align 8, !tbaa !8
  %10 = ptrtoint ptr %9 to i64
  %11 = and i64 %10, 7
  %12 = sub i64 8, %11
  %13 = and i64 %12, 7
  %14 = trunc i64 %13 to i32
  store i32 %14, ptr %7, align 4, !tbaa !10
  %15 = load i32, ptr %4, align 4, !tbaa !10
  %16 = load i32, ptr %7, align 4, !tbaa !10
  %17 = icmp ult i32 %15, %16
  br i1 %17, label %18, label %20

18:                                               ; preds = %2
  %19 = load i32, ptr %4, align 4, !tbaa !10
  store i32 %19, ptr %7, align 4, !tbaa !10
  br label %20

20:                                               ; preds = %18, %2
  %21 = load i32, ptr %7, align 4, !tbaa !10
  %22 = load i32, ptr %4, align 4, !tbaa !10
  %23 = sub i32 %22, %21
  store i32 %23, ptr %4, align 4, !tbaa !10
  br label %24

24:                                               ; preds = %28, %20
  %25 = load i32, ptr %7, align 4, !tbaa !10
  %26 = add i32 %25, -1
  store i32 %26, ptr %7, align 4, !tbaa !10
  %27 = icmp ne i32 %25, 0
  br i1 %27, label %28, label %31

28:                                               ; preds = %24
  %29 = load ptr, ptr %5, align 8, !tbaa !8
  %30 = getelementptr inbounds nuw i8, ptr %29, i32 1
  store ptr %30, ptr %5, align 8, !tbaa !8
  store volatile i8 0, ptr %29, align 1, !tbaa !22
  br label %24, !llvm.loop !29

31:                                               ; preds = %24
  %32 = load ptr, ptr %5, align 8, !tbaa !8
  store ptr %32, ptr %6, align 8, !tbaa !30
  br label %33

33:                                               ; preds = %40, %31
  %34 = load i32, ptr %4, align 4, !tbaa !10
  %35 = zext i32 %34 to i64
  %36 = icmp uge i64 %35, 8
  br i1 %36, label %37, label %43

37:                                               ; preds = %33
  %38 = load ptr, ptr %6, align 8, !tbaa !30
  %39 = getelementptr inbounds nuw i64, ptr %38, i32 1
  store ptr %39, ptr %6, align 8, !tbaa !30
  store volatile i64 0, ptr %38, align 8, !tbaa !32
  br label %40

40:                                               ; preds = %37
  %41 = load i32, ptr %4, align 4, !tbaa !10
  %42 = sub i32 %41, 8
  store i32 %42, ptr %4, align 4, !tbaa !10
  br label %33, !llvm.loop !34

43:                                               ; preds = %33
  %44 = load ptr, ptr %6, align 8, !tbaa !30
  store ptr %44, ptr %5, align 8, !tbaa !8
  br label %45

45:                                               ; preds = %49, %43
  %46 = load i32, ptr %4, align 4, !tbaa !10
  %47 = add i32 %46, -1
  store i32 %47, ptr %4, align 4, !tbaa !10
  %48 = icmp ne i32 %46, 0
  br i1 %48, label %49, label %52

49:                                               ; preds = %45
  %50 = load ptr, ptr %5, align 8, !tbaa !8
  %51 = getelementptr inbounds nuw i8, ptr %50, i32 1
  store ptr %51, ptr %5, align 8, !tbaa !8
  store volatile i8 0, ptr %50, align 1, !tbaa !22
  br label %45, !llvm.loop !35

52:                                               ; preds = %45
  call void @llvm.lifetime.end.p0(i64 4, ptr %7) #6
  call void @llvm.lifetime.end.p0(i64 8, ptr %6) #6
  call void @llvm.lifetime.end.p0(i64 8, ptr %5) #6
  ret void
}

; Function Attrs: nounwind uwtable
define internal i32 @Hash_DRBG_Uninstantiate(ptr noundef %0) #0 {
  %2 = alloca ptr, align 8
  %3 = alloca i32, align 4
  %4 = alloca i32, align 4
  %5 = alloca ptr, align 8
  store ptr %0, ptr %2, align 8, !tbaa !16
  call void @llvm.lifetime.start.p0(i64 4, ptr %3) #6
  call void @llvm.lifetime.start.p0(i64 4, ptr %4) #6
  store i32 0, ptr %4, align 4, !tbaa !10
  call void @llvm.lifetime.start.p0(i64 8, ptr %5) #6
  %6 = load ptr, ptr %2, align 8, !tbaa !16
  store ptr %6, ptr %5, align 8, !tbaa !8
  %7 = load ptr, ptr %2, align 8, !tbaa !16
  call void @ForceZero(ptr noundef %7, i32 noundef 128)
  store i32 0, ptr %3, align 4, !tbaa !10
  br label %8

8:                                                ; preds = %22, %1
  %9 = load i32, ptr %3, align 4, !tbaa !10
  %10 = zext i32 %9 to i64
  %11 = icmp ult i64 %10, 128
  br i1 %11, label %12, label %25

12:                                               ; preds = %8
  %13 = load ptr, ptr %5, align 8, !tbaa !8
  %14 = load i32, ptr %3, align 4, !tbaa !10
  %15 = zext i32 %14 to i64
  %16 = getelementptr inbounds nuw i8, ptr %13, i64 %15
  %17 = load i8, ptr %16, align 1, !tbaa !22
  %18 = zext i8 %17 to i32
  %19 = xor i32 %18, 0
  %20 = load i32, ptr %4, align 4, !tbaa !10
  %21 = or i32 %20, %19
  store i32 %21, ptr %4, align 4, !tbaa !10
  br label %22

22:                                               ; preds = %12
  %23 = load i32, ptr %3, align 4, !tbaa !10
  %24 = add i32 %23, 1
  store i32 %24, ptr %3, align 4, !tbaa !10
  br label %8, !llvm.loop !40

25:                                               ; preds = %8
  %26 = load i32, ptr %4, align 4, !tbaa !10
  %27 = icmp eq i32 %26, 0
  %28 = select i1 %27, i32 0, i32 1
  call void @llvm.lifetime.end.p0(i64 8, ptr %5) #6
  call void @llvm.lifetime.end.p0(i64 4, ptr %4) #6
  call void @llvm.lifetime.end.p0(i64 4, ptr %3) #6
  ret i32 %28
}

; Function Attrs: nounwind uwtable
define i32 @wc_FreeRng(ptr noundef %0) #0 {
  %2 = alloca i32, align 4
  %3 = alloca ptr, align 8
  %4 = alloca i32, align 4
  %5 = alloca i32, align 4
  %6 = alloca ptr, align 8
  store ptr %0, ptr %3, align 8, !tbaa !3
  call void @llvm.lifetime.start.p0(i64 4, ptr %4) #6
  store i32 0, ptr %4, align 4, !tbaa !10
  %7 = load ptr, ptr %3, align 8, !tbaa !3
  %8 = icmp eq ptr %7, null
  br i1 %8, label %9, label %10

9:                                                ; preds = %1
  store i32 -173, ptr %2, align 4
  store i32 1, ptr %5, align 4
  br label %40

10:                                               ; preds = %1
  %11 = load ptr, ptr %3, align 8, !tbaa !3
  %12 = getelementptr inbounds nuw %struct.WC_RNG, ptr %11, i32 0, i32 2
  %13 = load ptr, ptr %12, align 8, !tbaa !12
  %14 = icmp ne ptr %13, null
  br i1 %14, label %15, label %36

15:                                               ; preds = %10
  %16 = load ptr, ptr %3, align 8, !tbaa !3
  %17 = getelementptr inbounds nuw %struct.WC_RNG, ptr %16, i32 0, i32 2
  %18 = load ptr, ptr %17, align 8, !tbaa !12
  %19 = call i32 @Hash_DRBG_Uninstantiate(ptr noundef %18)
  %20 = icmp ne i32 %19, 0
  br i1 %20, label %21, label %22

21:                                               ; preds = %15
  store i32 -199, ptr %4, align 4, !tbaa !10
  br label %22

22:                                               ; preds = %21, %15
  br label %23

23:                                               ; preds = %22
  call void @llvm.lifetime.start.p0(i64 8, ptr %6) #6
  %24 = load ptr, ptr %3, align 8, !tbaa !3
  %25 = getelementptr inbounds nuw %struct.WC_RNG, ptr %24, i32 0, i32 2
  %26 = load ptr, ptr %25, align 8, !tbaa !12
  store ptr %26, ptr %6, align 8, !tbaa !24
  %27 = load ptr, ptr %6, align 8, !tbaa !24
  %28 = icmp ne ptr %27, null
  br i1 %28, label %29, label %31

29:                                               ; preds = %23
  %30 = load ptr, ptr %6, align 8, !tbaa !24
  call void @wolfSSL_Free(ptr noundef %30)
  br label %31

31:                                               ; preds = %29, %23
  call void @llvm.lifetime.end.p0(i64 8, ptr %6) #6
  br label %32

32:                                               ; preds = %31
  br label %33

33:                                               ; preds = %32
  %34 = load ptr, ptr %3, align 8, !tbaa !3
  %35 = getelementptr inbounds nuw %struct.WC_RNG, ptr %34, i32 0, i32 2
  store ptr null, ptr %35, align 8, !tbaa !12
  br label %36

36:                                               ; preds = %33, %10
  %37 = load ptr, ptr %3, align 8, !tbaa !3
  %38 = getelementptr inbounds nuw %struct.WC_RNG, ptr %37, i32 0, i32 3
  store i8 0, ptr %38, align 8, !tbaa !26
  %39 = load i32, ptr %4, align 4, !tbaa !10
  store i32 %39, ptr %2, align 4
  store i32 1, ptr %5, align 4
  br label %40

40:                                               ; preds = %36, %9
  call void @llvm.lifetime.end.p0(i64 4, ptr %4) #6
  %41 = load i32, ptr %2, align 4
  ret i32 %41
}