; Function Attrs: nounwind uwtable
define range(i32 -199, 1) i32 @wc_FreeRng(ptr noundef captures(address_is_null) %0) local_unnamed_addr #0 {
  %2 = icmp eq ptr %0, null
  br i1 %2, label %28, label %3

3:                                                ; preds = %1
  %4 = getelementptr inbounds nuw i8, ptr %0, i64 16
  %5 = load ptr, ptr %4, align 8, !tbaa !3
  %.not = icmp eq ptr %5, null
  br i1 %.not, label %26, label %6

6:                                                ; preds = %3
  %7 = ptrtoint ptr %5 to i64
  %8 = trunc i64 %7 to i32
  %9 = sub i32 0, %8
  %10 = and i32 %9, 7
  %11 = sub nuw nsw i32 128, %10
  %.not24.i.i = icmp eq i32 %10, 0
  br i1 %.not24.i.i, label %.lr.ph29.i.i.preheader, label %.lr.ph.i.i

.lr.ph29.i.i.preheader:                           ; preds = %.lr.ph.i.i, %6
  %.01528.i.i.ph = phi ptr [ %5, %6 ], [ %13, %.lr.ph.i.i ]
  br label %.lr.ph29.i.i

.lr.ph.i.i:                                       ; preds = %6, %.lr.ph.i.i
  %.126.i.i = phi i32 [ %12, %.lr.ph.i.i ], [ %10, %6 ]
  %.01625.i.i = phi ptr [ %13, %.lr.ph.i.i ], [ %5, %6 ]
  %12 = add nsw i32 %.126.i.i, -1
  %13 = getelementptr inbounds nuw i8, ptr %.01625.i.i, i64 1
  store volatile i8 0, ptr %.01625.i.i, align 1, !tbaa !15
  %.not.i.i = icmp eq i32 %12, 0
  br i1 %.not.i.i, label %.lr.ph29.i.i.preheader, label %.lr.ph.i.i, !llvm.loop !27

.preheader.i.i:                                   ; preds = %.lr.ph29.i.i
  %.not2232.i.i = icmp eq i32 %15, 0
  br i1 %.not2232.i.i, label %ForceZero.exit.i.preheader, label %.lr.ph35.i.i

.lr.ph29.i.i:                                     ; preds = %.lr.ph29.i.i.preheader, %.lr.ph29.i.i
  %.01528.i.i = phi ptr [ %14, %.lr.ph29.i.i ], [ %.01528.i.i.ph, %.lr.ph29.i.i.preheader ]
  %.01827.i.i = phi i32 [ %15, %.lr.ph29.i.i ], [ %11, %.lr.ph29.i.i.preheader ]
  %14 = getelementptr inbounds nuw i8, ptr %.01528.i.i, i64 8
  store volatile i64 0, ptr %.01528.i.i, align 8, !tbaa !11
  %15 = add nsw i32 %.01827.i.i, -8
  %16 = icmp ugt i32 %15, 7
  br i1 %16, label %.lr.ph29.i.i, label %.preheader.i.i, !llvm.loop !13

.lr.ph35.i.i:                                     ; preds = %.preheader.i.i, %.lr.ph35.i.i
  %.11734.i.i = phi ptr [ %18, %.lr.ph35.i.i ], [ %14, %.preheader.i.i ]
  %.11933.i.i = phi i32 [ %17, %.lr.ph35.i.i ], [ %15, %.preheader.i.i ]
  %17 = add i32 %.11933.i.i, -1
  %18 = getelementptr inbounds nuw i8, ptr %.11734.i.i, i64 1
  store volatile i8 0, ptr %.11734.i.i, align 1, !tbaa !15
  %.not22.i.i = icmp eq i32 %17, 0
  br i1 %.not22.i.i, label %ForceZero.exit.i.preheader, label %.lr.ph35.i.i, !llvm.loop !16

ForceZero.exit.i.preheader:                       ; preds = %.lr.ph35.i.i, %.preheader.i.i
  br label %ForceZero.exit.i

ForceZero.exit.i:                                 ; preds = %ForceZero.exit.i.preheader, %ForceZero.exit.i
  %indvars.iv.i = phi i64 [ %indvars.iv.next.i, %ForceZero.exit.i ], [ 0, %ForceZero.exit.i.preheader ]
  %.0711.i = phi i32 [ %22, %ForceZero.exit.i ], [ 0, %ForceZero.exit.i.preheader ]
  %19 = getelementptr inbounds nuw i8, ptr %5, i64 %indvars.iv.i
  %20 = load i8, ptr %19, align 1, !tbaa !15
  %21 = zext i8 %20 to i32
  %22 = or i32 %.0711.i, %21
  %indvars.iv.next.i = add nuw nsw i64 %indvars.iv.i, 1
  %exitcond.not.i = icmp eq i64 %indvars.iv.next.i, 128
  br i1 %exitcond.not.i, label %Hash_DRBG_Uninstantiate.exit, label %ForceZero.exit.i, !llvm.loop !28

Hash_DRBG_Uninstantiate.exit:                     ; preds = %ForceZero.exit.i
  %.not15 = icmp eq i32 %22, 0
  %spec.select = select i1 %.not15, i32 0, i32 -199
  %23 = load ptr, ptr %4, align 8, !tbaa !3
  %.not14 = icmp eq ptr %23, null
  br i1 %.not14, label %25, label %24

24:                                               ; preds = %Hash_DRBG_Uninstantiate.exit
  tail call void @wolfSSL_Free(ptr noundef nonnull %23) #9
  br label %25

25:                                               ; preds = %24, %Hash_DRBG_Uninstantiate.exit
  store ptr null, ptr %4, align 8, !tbaa !3
  br label %26

26:                                               ; preds = %25, %3
  %.09 = phi i32 [ %spec.select, %25 ], [ 0, %3 ]
  %27 = getelementptr inbounds nuw i8, ptr %0, i64 24
  store i8 0, ptr %27, align 8, !tbaa !22
  br label %28

28:                                               ; preds = %1, %26
  %.0 = phi i32 [ %.09, %26 ], [ -173, %1 ]
  ret i32 %.0
}